target datalayout = "e-m:e-p270:32:32-p271:32:32-p272:64:64-i64:64-i128:128-f80:128-n8:16:32:64-S128"
target triple = "x86_64-pc-linux-gnu"

; Function Attrs: mustprogress uwtable
define dso_local noundef i32 @_ZNKSt3__17codecvtIDsDu11__mbstate_tE6do_outERS1_PKDsS5_RS5_PDuS7_RS7_(ptr noundef nonnull align 8 dereferenceable(16) %0, ptr noundef nonnull align 4 dereferenceable(8) %1, ptr noundef %2, ptr noundef %3, ptr noundef nonnull align 8 dereferenceable(8) %4, ptr noundef %5, ptr noundef %6, ptr noundef nonnull align 8 dereferenceable(8) %7) unnamed_addr #2 align 2 {
  %9 = alloca ptr, align 8
  %10 = alloca ptr, align 8
  %11 = alloca ptr, align 8
  %12 = alloca ptr, align 8
  %13 = alloca ptr, align 8
  %14 = alloca ptr, align 8
  %15 = alloca ptr, align 8
  %16 = alloca ptr, align 8
  %17 = alloca ptr, align 8
  %18 = alloca ptr, align 8
  %19 = alloca ptr, align 8
  %20 = alloca ptr, align 8
  %21 = alloca ptr, align 8
  %22 = alloca ptr, align 8
  %23 = alloca i32, align 4
  store ptr %0, ptr %9, align 8, !tbaa !382
  store ptr %1, ptr %10, align 8, !tbaa !55
  store ptr %2, ptr %11, align 8, !tbaa !496
  store ptr %3, ptr %12, align 8, !tbaa !496
  store ptr %4, ptr %13, align 8, !tbaa !498
  store ptr %5, ptr %14, align 8, !tbaa !507
  store ptr %6, ptr %15, align 8, !tbaa !507
  store ptr %7, ptr %16, align 8, !tbaa !509
  call void @llvm.lifetime.start.p0(i64 8, ptr %17) #13
  %24 = load ptr, ptr %11, align 8, !tbaa !496
  store ptr %24, ptr %17, align 8, !tbaa !70
  call void @llvm.lifetime.start.p0(i64 8, ptr %18) #13
  %25 = load ptr, ptr %12, align 8, !tbaa !496
  store ptr %25, ptr %18, align 8, !tbaa !70
  call void @llvm.lifetime.start.p0(i64 8, ptr %19) #13
  %26 = load ptr, ptr %17, align 8, !tbaa !70
  store ptr %26, ptr %19, align 8, !tbaa !70
  call void @llvm.lifetime.start.p0(i64 8, ptr %20) #13
  %27 = load ptr, ptr %14, align 8, !tbaa !507
  store ptr %27, ptr %20, align 8, !tbaa !9
  call void @llvm.lifetime.start.p0(i64 8, ptr %21) #13
  %28 = load ptr, ptr %15, align 8, !tbaa !507
  store ptr %28, ptr %21, align 8, !tbaa !9
  call void @llvm.lifetime.start.p0(i64 8, ptr %22) #13
  %29 = load ptr, ptr %20, align 8, !tbaa !9
  store ptr %29, ptr %22, align 8, !tbaa !9
  call void @llvm.lifetime.start.p0(i64 4, ptr %23) #13
  %30 = load ptr, ptr %17, align 8, !tbaa !70
  %31 = load ptr, ptr %18, align 8, !tbaa !70
  %32 = load ptr, ptr %20, align 8, !tbaa !9
  %33 = load ptr, ptr %21, align 8, !tbaa !9
  %34 = call noundef i32 @_ZNSt3__1L13utf16_to_utf8EPKtS1_RS1_PhS3_RS3_mNS_12codecvt_modeE(ptr noundef %30, ptr noundef %31, ptr noundef nonnull align 8 dereferenceable(8) %19, ptr noundef %32, ptr noundef %33, ptr noundef nonnull align 8 dereferenceable(8) %22, i64 noundef 1114111, i32 noundef 0)
  store i32 %34, ptr %23, align 4, !tbaa !337
  %35 = load ptr, ptr %11, align 8, !tbaa !496
  %36 = load ptr, ptr %19, align 8, !tbaa !70
  %37 = load ptr, ptr %17, align 8, !tbaa !70
  %38 = ptrtoint ptr %36 to i64
  %39 = ptrtoint ptr %37 to i64
  %40 = sub i64 %38, %39
  %41 = sdiv exact i64 %40, 2
  %42 = getelementptr inbounds i16, ptr %35, i64 %41
  %43 = load ptr, ptr %13, align 8, !tbaa !498
  store ptr %42, ptr %43, align 8, !tbaa !496
  %44 = load ptr, ptr %14, align 8, !tbaa !507
  %45 = load ptr, ptr %22, align 8, !tbaa !9
  %46 = load ptr, ptr %20, align 8, !tbaa !9
  %47 = ptrtoint ptr %45 to i64
  %48 = ptrtoint ptr %46 to i64
  %49 = sub i64 %47, %48
  %50 = getelementptr inbounds i8, ptr %44, i64 %49
  %51 = load ptr, ptr %16, align 8, !tbaa !509
  store ptr %50, ptr %51, align 8, !tbaa !507
  %52 = load i32, ptr %23, align 4, !tbaa !337
  call void @llvm.lifetime.end.p0(i64 4, ptr %23) #13
  call void @llvm.lifetime.end.p0(i64 8, ptr %22) #13
  call void @llvm.lifetime.end.p0(i64 8, ptr %21) #13
  call void @llvm.lifetime.end.p0(i64 8, ptr %20) #13
  call void @llvm.lifetime.end.p0(i64 8, ptr %19) #13
  call void @llvm.lifetime.end.p0(i64 8, ptr %18) #13
  call void @llvm.lifetime.end.p0(i64 8, ptr %17) #13
  ret i32 %52
}