; Function Attrs: mustprogress nofree norecurse nosync nounwind memory(readwrite, inaccessiblemem: none) uwtable
define dso_local noundef range(i32 0, 3) i32 @_ZNKSt3__17codecvtIDsDu11__mbstate_tE6do_outERS1_PKDsS5_RS5_PDuS7_RS7_(ptr nonnull readnone align 8 captures(none) %0, ptr nonnull readnone align 4 captures(none) %1, ptr noundef %2, ptr noundef %3, ptr noundef nonnull writeonly align 8 captures(none) dereferenceable(8) initializes((0, 8)) %4, ptr noundef %5, ptr noundef %6, ptr noundef nonnull writeonly align 8 captures(none) dereferenceable(8) initializes((0, 8)) %7) unnamed_addr #26 align 2 {
  %9 = alloca ptr, align 8
  %10 = alloca ptr, align 8
  call void @llvm.lifetime.start.p0(i64 8, ptr nonnull %9) #45
  call void @llvm.lifetime.start.p0(i64 8, ptr nonnull %10) #45
  %11 = call fastcc noundef i32 @_ZNSt3__1L13utf16_to_utf8EPKtS1_RS1_PhS3_RS3_mNS_12codecvt_modeE(ptr noundef %2, ptr noundef %3, ptr noundef nonnull align 8 dereferenceable(8) %9, ptr noundef %5, ptr noundef %6, ptr noundef nonnull align 8 dereferenceable(8) %10, i64 noundef 1114111, i32 noundef 0)
  %12 = load ptr, ptr %9, align 8, !tbaa !419
  %13 = ptrtoint ptr %12 to i64
  %14 = ptrtoint ptr %2 to i64
  %15 = sub i64 %13, %14
  %16 = getelementptr inbounds i8, ptr %2, i64 %15
  store ptr %16, ptr %4, align 8, !tbaa !420
  %17 = load ptr, ptr %10, align 8, !tbaa !72
  %18 = ptrtoint ptr %17 to i64
  %19 = ptrtoint ptr %5 to i64
  %20 = sub i64 %18, %19
  %21 = getelementptr inbounds i8, ptr %5, i64 %20
  store ptr %21, ptr %7, align 8, !tbaa !425
  call void @llvm.lifetime.end.p0(i64 8, ptr nonnull %10) #45
  call void @llvm.lifetime.end.p0(i64 8, ptr nonnull %9) #45
  ret i32 %11
}